; Function Attrs: mustprogress nofree norecurse nosync nounwind willreturn memory(read, inaccessiblemem: none) uwtable
define noundef zeroext i1 @_ZN3gmx20PmeLoadBalanceHelper18doPmeLoadBalancingERKNS_12MdrunOptionsEPK10t_inputrecPK10t_forcerecRKNS_18SimulationWorkloadE(ptr noundef nonnull readonly align 8 captures(none) dereferenceable(56) %0, ptr noundef readonly captures(none) %1, ptr noundef readonly captures(none) %2, ptr noundef nonnull readonly align 1 captures(none) dereferenceable(25) %3) local_unnamed_addr #3 align 2 {
  %5 = getelementptr inbounds nuw i8, ptr %0, i64 36
  %6 = load i8, ptr %5, align 4, !tbaa !16, !range !25, !noundef !26
  %7 = trunc nuw i8 %6 to i1
  br i1 %7, label %8, label %_ZL8usingPmeRK22CoulombInteractionType.exit

8:                                                ; preds = %4
  %9 = load ptr, ptr %2, align 8, !tbaa !27
  %10 = getelementptr inbounds nuw i8, ptr %9, i64 68
  %.val = load i32, ptr %10, align 4, !tbaa !29
  switch i32 %.val, label %_ZL8usingPmeRK22CoulombInteractionType.exit [
    i32 3, label %11
    i32 14, label %11
    i32 13, label %11
    i32 15, label %11
    i32 5, label %11
  ]

11:                                               ; preds = %8, %8, %8, %8, %8
  %12 = getelementptr inbounds nuw i8, ptr %0, i64 2
  %13 = load i8, ptr %12, align 2, !tbaa !31, !range !25, !noundef !26
  %14 = trunc nuw i8 %13 to i1
  br i1 %14, label %_ZL8usingPmeRK22CoulombInteractionType.exit, label %15

15:                                               ; preds = %11
  %16 = getelementptr inbounds nuw i8, ptr %1, i64 36
  %17 = load i32, ptr %16, align 4, !tbaa !32
  %.not = icmp eq i32 %17, 1
  br i1 %.not, label %_ZL8usingPmeRK22CoulombInteractionType.exit, label %18

18:                                               ; preds = %15
  %19 = getelementptr inbounds nuw i8, ptr %3, i64 20
  %20 = load i8, ptr %19, align 1, !tbaa !122, !range !25, !noundef !26
  %21 = trunc nuw i8 %20 to i1
  %22 = xor i1 %21, true
  br label %_ZL8usingPmeRK22CoulombInteractionType.exit

_ZL8usingPmeRK22CoulombInteractionType.exit:      ; preds = %8, %18, %15, %11, %4
  %23 = phi i1 [ false, %15 ], [ false, %11 ], [ false, %4 ], [ %22, %18 ], [ false, %8 ]
  ret i1 %23
}